; Function Attrs: nounwind uwtable
define internal ptr @gc_get_threshold(ptr readnone captures(none) %0, ptr readnone captures(none) %1) #0 {
  %3 = tail call align 8 ptr @llvm.threadlocal.address.p0(ptr align 8 @_Py_tss_tstate)
  %4 = load ptr, ptr %3, align 8, !tbaa !4
  %5 = getelementptr inbounds nuw i8, ptr %4, i64 16
  %6 = load ptr, ptr %5, align 8, !tbaa !9
  %7 = getelementptr inbounds nuw i8, ptr %6, i64 7440
  %8 = load i32, ptr %7, align 8, !tbaa !33
  %9 = getelementptr inbounds nuw i8, ptr %6, i64 7464
  %10 = load i32, ptr %9, align 8, !tbaa !34
  %11 = tail call ptr (ptr, ...) @Py_BuildValue(ptr noundef nonnull @.str.20, i32 noundef %8, i32 noundef %10, i32 noundef 0) #5
  ret ptr %11
}